target datalayout = "e-m:e-p270:32:32-p271:32:32-p272:64:64-i64:64-i128:128-f80:128-n8:16:32:64-S128"
target triple = "x86_64-pc-linux-gnu"

%"class.gmx::ColvarsSimulationsParameters" = type { ptr, %"class.std::unique_ptr", double, %struct.t_atoms, ptr, ptr, ptr }
%"class.std::unique_ptr" = type { %"struct.std::__uniq_ptr_data" }
%"struct.std::__uniq_ptr_data" = type { %"class.std::__uniq_ptr_impl" }
%"class.std::__uniq_ptr_impl" = type { %"class.std::tuple" }
%"class.std::tuple" = type { %"struct.std::_Tuple_impl" }
%"struct.std::_Tuple_impl" = type { %"struct.std::_Head_base.1" }
%"struct.std::_Head_base.1" = type { ptr }
%struct.t_atoms = type { i32, ptr, ptr, ptr, ptr, i32, ptr, ptr, i8, i8, i8, i8, i8 }

; Function Attrs: mustprogress uwtable
define void @_ZN3gmx28ColvarsSimulationsParameters11setTopologyERK10gmx_mtop_t(ptr noundef nonnull align 8 dereferenceable(120) %0, ptr noundef nonnull align 1 %1) #1 align 2 {
  %3 = alloca ptr, align 8
  %4 = alloca ptr, align 8
  %5 = alloca %struct.t_atoms, align 8
  store ptr %0, ptr %3, align 8, !tbaa !4
  store ptr %1, ptr %4, align 8, !tbaa !151
  %6 = load ptr, ptr %3, align 8
  call void @llvm.lifetime.start.p0(i64 72, ptr %5) #16
  %7 = load ptr, ptr %4, align 8, !tbaa !151
  call void @_Z21gmx_mtop_global_atomsRK10gmx_mtop_t(ptr dead_on_unwind writable sret(%struct.t_atoms) align 8 %5, ptr noundef nonnull align 1 %7)
  %8 = getelementptr inbounds nuw %"class.gmx::ColvarsSimulationsParameters", ptr %6, i32 0, i32 3
  call void @llvm.memcpy.p0.p0.i64(ptr align 8 %8, ptr align 8 %5, i64 72, i1 false), !tbaa.struct !153
  call void @llvm.lifetime.end.p0(i64 72, ptr %5) #16
  ret void
}